target datalayout = "e-m:e-p270:32:32-p271:32:32-p272:64:64-i64:64-i128:128-f80:128-n8:16:32:64-S128"
target triple = "x86_64-pc-linux-gnu"

%struct.cli_bc_type = type { i32, ptr, i32, i32, i32 }
%struct.cli_bc = type { %struct.bytecode_metadata, i32, i32, i32, i32, ptr, ptr, ptr, ptr, i64, i32, ptr, ptr, ptr, ptr, i32, i16, ptr, i32, i32, i32, i32, ptr, i32, i32, ptr }
%struct.bytecode_metadata = type { ptr, ptr, i64, i32, i32, i32, i32, i32 }

@.str.313 = private unnamed_addr constant [55 x i8] c"bytecode: function type not accepted for constant: %u\0A\00", align 1

; Function Attrs: nounwind uwtable
define internal zeroext i16 @type_components(ptr noundef %0, i16 noundef zeroext %1, ptr noundef %2) #0 {
  %4 = alloca i16, align 2
  %5 = alloca ptr, align 8
  %6 = alloca i16, align 2
  %7 = alloca ptr, align 8
  %8 = alloca i32, align 4
  %9 = alloca i32, align 4
  %10 = alloca ptr, align 8
  store ptr %0, ptr %5, align 8
  store i16 %1, ptr %6, align 2
  store ptr %2, ptr %7, align 8
  store i32 0, ptr %9, align 4
  %11 = load i16, ptr %6, align 2
  %12 = zext i16 %11 to i32
  %13 = icmp sle i32 %12, 64
  br i1 %13, label %14, label %15

14:                                               ; preds = %3
  store i16 1, ptr %4, align 2
  br label %76

15:                                               ; preds = %3
  %16 = load ptr, ptr %5, align 8
  %17 = getelementptr inbounds %struct.cli_bc, ptr %16, i32 0, i32 6
  %18 = load ptr, ptr %17, align 8
  %19 = load i16, ptr %6, align 2
  %20 = zext i16 %19 to i32
  %21 = sub nsw i32 %20, 65
  %22 = sext i32 %21 to i64
  %23 = getelementptr inbounds %struct.cli_bc_type, ptr %18, i64 %22
  store ptr %23, ptr %10, align 8
  %24 = load ptr, ptr %10, align 8
  %25 = getelementptr inbounds %struct.cli_bc_type, ptr %24, i32 0, i32 0
  %26 = load i32, ptr %25, align 8
  switch i32 %26, label %74 [
    i32 0, label %27
    i32 1, label %31
    i32 2, label %32
    i32 3, label %32
    i32 4, label %59
  ]

27:                                               ; preds = %15
  %28 = load i16, ptr %6, align 2
  %29 = zext i16 %28 to i32
  call void (ptr, ...) @cli_errmsg(ptr noundef @.str.313, i32 noundef %29)
  %30 = load ptr, ptr %7, align 8
  store i8 0, ptr %30, align 1
  store i16 0, ptr %4, align 2
  br label %76

31:                                               ; preds = %15
  store i16 2, ptr %4, align 2
  br label %76

32:                                               ; preds = %15, %15
  store i32 0, ptr %8, align 4
  br label %33

33:                                               ; preds = %53, %32
  %34 = load i32, ptr %8, align 4
  %35 = load ptr, ptr %10, align 8
  %36 = getelementptr inbounds %struct.cli_bc_type, ptr %35, i32 0, i32 2
  %37 = load i32, ptr %36, align 8
  %38 = icmp ult i32 %34, %37
  br i1 %38, label %39, label %56

39:                                               ; preds = %33
  %40 = load ptr, ptr %5, align 8
  %41 = load ptr, ptr %10, align 8
  %42 = getelementptr inbounds %struct.cli_bc_type, ptr %41, i32 0, i32 1
  %43 = load ptr, ptr %42, align 8
  %44 = load i32, ptr %8, align 4
  %45 = zext i32 %44 to i64
  %46 = getelementptr inbounds i16, ptr %43, i64 %45
  %47 = load i16, ptr %46, align 2
  %48 = load ptr, ptr %7, align 8
  %49 = call zeroext i16 @type_components(ptr noundef %40, i16 noundef zeroext %47, ptr noundef %48)
  %50 = zext i16 %49 to i32
  %51 = load i32, ptr %9, align 4
  %52 = add i32 %51, %50
  store i32 %52, ptr %9, align 4
  br label %53

53:                                               ; preds = %39
  %54 = load i32, ptr %8, align 4
  %55 = add i32 %54, 1
  store i32 %55, ptr %8, align 4
  br label %33

56:                                               ; preds = %33
  %57 = load i32, ptr %9, align 4
  %58 = trunc i32 %57 to i16
  store i16 %58, ptr %4, align 2
  br label %76

59:                                               ; preds = %15
  %60 = load ptr, ptr %5, align 8
  %61 = load ptr, ptr %10, align 8
  %62 = getelementptr inbounds %struct.cli_bc_type, ptr %61, i32 0, i32 1
  %63 = load ptr, ptr %62, align 8
  %64 = getelementptr inbounds i16, ptr %63, i64 0
  %65 = load i16, ptr %64, align 2
  %66 = load ptr, ptr %7, align 8
  %67 = call zeroext i16 @type_components(ptr noundef %60, i16 noundef zeroext %65, ptr noundef %66)
  %68 = zext i16 %67 to i32
  %69 = load ptr, ptr %10, align 8
  %70 = getelementptr inbounds %struct.cli_bc_type, ptr %69, i32 0, i32 2
  %71 = load i32, ptr %70, align 8
  %72 = mul i32 %68, %71
  %73 = trunc i32 %72 to i16
  store i16 %73, ptr %4, align 2
  br label %76

74:                                               ; preds = %15
  %75 = load ptr, ptr %7, align 8
  store i8 0, ptr %75, align 1
  store i16 0, ptr %4, align 2
  br label %76

76:                                               ; preds = %74, %59, %56, %31, %27, %14
  %77 = load i16, ptr %4, align 2
  ret i16 %77
}