; Function Attrs: nounwind uwtable
define internal fastcc zeroext i16 @type_components(ptr noundef %0, i16 noundef zeroext %1, ptr noundef %2) unnamed_addr #0 {
  %4 = zext i16 %1 to i32
  %5 = icmp ult i16 %1, 65
  br i1 %5, label %common.ret25, label %6

6:                                                ; preds = %3
  %7 = getelementptr inbounds i8, ptr %0, i64 72
  %8 = load ptr, ptr %7, align 8
  %9 = zext i16 %1 to i64
  %10 = getelementptr %struct.cli_bc_type, ptr %8, i64 %9
  %11 = getelementptr i8, ptr %10, i64 -2080
  %12 = load i32, ptr %11, align 8
  switch i32 %12, label %36 [
    i32 0, label %13
    i32 1, label %common.ret25
    i32 2, label %14
    i32 3, label %14
    i32 4, label %27
  ]

13:                                               ; preds = %6
  tail call void (ptr, ...) @cli_errmsg(ptr noundef nonnull @.str.313, i32 noundef %4) #25
  store i8 0, ptr %2, align 1
  br label %common.ret25

14:                                               ; preds = %6, %6
  %15 = getelementptr i8, ptr %10, i64 -2064
  %16 = load i32, ptr %15, align 8
  %.not = icmp eq i32 %16, 0
  br i1 %.not, label %common.ret25, label %.lr.ph

.lr.ph:                                           ; preds = %14
  %17 = getelementptr i8, ptr %10, i64 -2072
  br label %18

18:                                               ; preds = %.lr.ph, %18
  %indvars.iv = phi i64 [ 0, %.lr.ph ], [ %indvars.iv.next, %18 ]
  %.02024 = phi i16 [ 0, %.lr.ph ], [ %23, %18 ]
  %19 = load ptr, ptr %17, align 8
  %20 = getelementptr inbounds i16, ptr %19, i64 %indvars.iv
  %21 = load i16, ptr %20, align 2
  %22 = tail call fastcc zeroext i16 @type_components(ptr noundef %0, i16 noundef zeroext %21, ptr noundef %2)
  %23 = add i16 %22, %.02024
  %indvars.iv.next = add nuw nsw i64 %indvars.iv, 1
  %24 = load i32, ptr %15, align 8
  %25 = zext i32 %24 to i64
  %26 = icmp ult i64 %indvars.iv.next, %25
  br i1 %26, label %18, label %common.ret25

common.ret25:                                     ; preds = %6, %3, %36, %13, %14, %18, %27
  %common.ret25.op = phi i16 [ %35, %27 ], [ 0, %36 ], [ 0, %13 ], [ 1, %3 ], [ 2, %6 ], [ 0, %14 ], [ %23, %18 ]
  ret i16 %common.ret25.op

27:                                               ; preds = %6
  %28 = getelementptr i8, ptr %10, i64 -2072
  %29 = load ptr, ptr %28, align 8
  %30 = load i16, ptr %29, align 2
  %31 = tail call fastcc zeroext i16 @type_components(ptr noundef nonnull %0, i16 noundef zeroext %30, ptr noundef %2)
  %32 = getelementptr i8, ptr %10, i64 -2064
  %33 = load i32, ptr %32, align 8
  %34 = trunc i32 %33 to i16
  %35 = mul i16 %31, %34
  br label %common.ret25

36:                                               ; preds = %6
  store i8 0, ptr %2, align 1
  br label %common.ret25
}